(lp0
(lp1
I0
aI0
aI0
aI0
aI0
aI0
aI0
aI0
aI0
aI0
aI0
aI0
aI0
aI0
aI0
aI0
aI0
aI0
aI0
aI0
aI0
aI0
aI0
aI0
aa(lp2
F1446074772.709504
aF1446074772.709504
aF1446074772.709504
aF1446074772.709504
aF1446074772.709504
aF1446074772.709504
aF1446074772.709504
aF1446074772.709504
aF1446074772.709504
aF1446074772.709504
aF1446074772.709504
aF1446074772.709504
aF1446074772.709504
aF1446074772.709504
aF1446074772.709504
aF1446074772.709504
aF1446074772.709504
aF1446074772.709504
aF1446074772.709504
aF1446074772.709504
aF1446074772.709504
aF1446074772.709504
aF1446074772.709504
aF1446074772.709504
aa.